(lp0
I0
aF0.1
aF0.2
aF0.30000000000000004
aF0.4
aF0.5
aF0.6
aF0.7
aF0.7999999999999999
aF0.8999999999999999
aF0.9999999999999999
aF1.0999999999999999
aF1.2
aF1.3
aF1.4000000000000001
aF1.5000000000000002
aF1.6000000000000003
aF1.7000000000000004
aF1.8000000000000005
aF1.9000000000000006
aF2.0000000000000004
aF2.1000000000000005
aF2.2000000000000006
aF2.3000000000000007
aF2.400000000000001
aF2.500000000000001
aF2.600000000000001
aF2.700000000000001
aF2.800000000000001
aF2.9000000000000012
aF3.0000000000000013
aF3.1000000000000014
aF3.2000000000000015
aF3.3000000000000016
aF3.4000000000000017
aF3.5000000000000018
aF3.600000000000002
aF3.700000000000002
aF3.800000000000002
aF3.900000000000002
aF4.000000000000002
aF4.100000000000001
aF4.200000000000001
aF4.300000000000001
aF4.4
aF4.5
aF4.6
aF4.699999999999999
aF4.799999999999999
aF4.899999999999999
aF4.999999999999998
aF5.099999999999998
aF5.1999999999999975
aF5.299999999999997
aF5.399999999999997
aF5.4999999999999964
aF5.599999999999996
aF5.699999999999996
aF5.799999999999995
aF5.899999999999995
aF5.999999999999995
aF6.099999999999994
aF6.199999999999994
aF6.299999999999994
aF6.399999999999993
aF6.499999999999993
aF6.5999999999999925
aF6.699999999999992
aF6.799999999999992
aF6.8999999999999915
aF6.999999999999991
aF7.099999999999991
aF7.19999999999999
aF7.29999999999999
aF7.39999999999999
aF7.499999999999989
aF7.599999999999989
aF7.699999999999989
aF7.799999999999988
aF7.899999999999988
aF7.999999999999988
aF8.099999999999987
aF8.199999999999987
aF8.299999999999986
aF8.399999999999986
aF8.499999999999986
aF8.599999999999985
aF8.699999999999985
aF8.799999999999985
aF8.899999999999984
aF8.999999999999984
aF9.099999999999984
aF9.199999999999983
aF9.299999999999983
aF9.399999999999983
aF9.499999999999982
aF9.599999999999982
aF9.699999999999982
aF9.799999999999981
aF9.89999999999998
a.(lp0
F0.0
aF-0.9800000000000001
aF-1.9600000000000002
aF-2.9400000000000004
aF-3.9200000000000004
aF-4.9
aF-5.880000000000001
aF-6.860000000000001
aF-7.840000000000002
aF-8.820000000000002
aF-9.800000000000002
aF-10.780000000000003
aF-11.760000000000003
aF-12.740000000000004
aF-13.720000000000004
aF-14.700000000000005
aF-15.680000000000005
aF-16.660000000000004
aF-17.640000000000004
aF-18.620000000000005
aF-19.600000000000005
aF-20.580000000000005
aF-21.560000000000006
aF-22.540000000000006
aF-23.520000000000007
aF-24.500000000000007
aF-25.480000000000008
aF-26.460000000000008
aF-27.44000000000001
aF-28.42000000000001
aF-29.40000000000001
aF-30.38000000000001
aF-31.36000000000001
aF-32.34000000000001
aF-33.32000000000001
aF-34.300000000000004
aF-35.28
aF-36.26
aF-37.239999999999995
aF-38.21999999999999
aF-39.19999999999999
aF-40.179999999999986
aF-41.15999999999998
aF-42.13999999999998
aF-43.119999999999976
aF-44.09999999999997
aF-45.07999999999997
aF-46.05999999999997
aF-47.039999999999964
aF-48.01999999999996
aF-48.99999999999996
aF-49.979999999999954
aF-50.95999999999995
aF-51.93999999999995
aF-52.919999999999945
aF-53.89999999999994
aF-54.87999999999994
aF-55.859999999999935
aF-56.83999999999993
aF-57.81999999999993
aF-58.799999999999926
aF-59.77999999999992
aF-60.75999999999992
aF-61.73999999999992
aF-62.719999999999914
aF-63.69999999999991
aF-64.67999999999991
aF-65.65999999999991
aF-66.63999999999992
aF-67.61999999999992
aF-68.59999999999992
aF-69.57999999999993
aF-70.55999999999993
aF-71.53999999999994
aF-72.51999999999994
aF-73.49999999999994
aF-74.47999999999995
aF-75.45999999999995
aF-76.43999999999996
aF-77.41999999999996
aF-78.39999999999996
aF-79.37999999999997
aF-80.35999999999997
aF-81.33999999999997
aF-82.31999999999998
aF-83.29999999999998
aF-84.27999999999999
aF-85.25999999999999
aF-86.24
aF-87.22
aF-88.2
aF-89.18
aF-90.16000000000001
aF-91.14000000000001
aF-92.12000000000002
aF-93.10000000000002
aF-94.08000000000003
aF-95.06000000000003
aF-96.04000000000003
aF-97.02000000000004
a.